target datalayout = "e-m:e-p270:32:32-p271:32:32-p272:64:64-i64:64-i128:128-f80:128-n8:16:32:64-S128"
target triple = "x86_64-pc-linux-gnu"

%struct.darktable_t = type { %struct.dt_codepath_t, i32, i32, ptr, ptr, ptr, ptr, ptr, ptr, ptr, ptr, ptr, ptr, ptr, ptr, ptr, ptr, ptr, ptr, ptr, ptr, ptr, ptr, ptr, ptr, ptr, ptr, ptr, ptr, ptr, [64 x %struct.dt_pthread_mutex_t], %struct.dt_pthread_mutex_t, %struct.dt_pthread_mutex_t, %struct.dt_pthread_mutex_t, %struct.dt_pthread_mutex_t, %struct.dt_pthread_mutex_t, ptr, ptr, ptr, ptr, ptr, ptr, ptr, ptr, ptr, ptr, ptr, ptr, ptr, %struct.dt_lua_state_t, ptr, double, ptr, i32, [47 x i32], i32, i32, ptr, ptr, %struct.dt_sys_resources_t, %struct.dt_backthumb_t, %struct.dt_gimp_t }
%struct.dt_codepath_t = type { i8, [3 x i8] }
%struct.dt_pthread_mutex_t = type { %union.pthread_mutex_t }
%union.pthread_mutex_t = type { %struct.__pthread_mutex_s }
%struct.__pthread_mutex_s = type { i32, i32, i32, i32, i32, i16, i16, %struct.__pthread_internal_list }
%struct.__pthread_internal_list = type { ptr, ptr }
%struct.dt_lua_state_t = type { i32 }
%struct.dt_sys_resources_t = type { i64, i64, ptr, ptr, i32 }
%struct.dt_backthumb_t = type { double, double, i32, i32, i32, i32 }
%struct.dt_gimp_t = type { i32, ptr, ptr, i32, i32 }
%struct.dt_control_image_enumerator_t = type { ptr, i32, ptr, i32 }
%struct.dt_film_t = type { i32, [512 x i8], %struct.dt_pthread_mutex_t, ptr, i32, i32, i32 }
%struct._GList = type { ptr, ptr, ptr }
%struct.timeval = type { i64, i64 }

@darktable = external global %struct.darktable_t, align 8
@.str.48 = private unnamed_addr constant [129 x i8] c"generated/home/dtcxzyw/WorkSpace/Projects/compilers/llvm-opt-benchmark/bench/darktable/darktable/src/control/jobs/control_jobs.c\00", align 1
@.str.60 = private unnamed_addr constant [40 x i8] c"[signal] raise %s; %s:%d, function %s()\00", align 1
@.str.61 = private unnamed_addr constant [28 x i8] c"DT_SIGNAL_FILMROLLS_CHANGED\00", align 1
@.str.123 = private unnamed_addr constant [70 x i8] c"failed to create film roll for destination directory, aborting move..\00", align 1
@.str.124 = private unnamed_addr constant [10 x i8] c"1:0:0:%s$\00", align 1
@__FUNCTION__._generic_dt_control_fileop_images_job_run = private unnamed_addr constant [42 x i8] c"_generic_dt_control_fileop_images_job_run\00", align 1

; Function Attrs: inlinehint nounwind uwtable
define internal double @dt_get_wtime() #5 {
  %1 = alloca %struct.timeval, align 8
  call void @llvm.lifetime.start.p0(i64 16, ptr %1) #14
  %2 = call i32 @gettimeofday(ptr noundef %1, ptr noundef null) #14
  %3 = getelementptr inbounds nuw %struct.timeval, ptr %1, i32 0, i32 0
  %4 = load i64, ptr %3, align 8, !tbaa !263
  %5 = sub nsw i64 %4, 1290608000
  %6 = sitofp i64 %5 to double
  %7 = getelementptr inbounds nuw %struct.timeval, ptr %1, i32 0, i32 1
  %8 = load i64, ptr %7, align 8, !tbaa !265
  %9 = sitofp i64 %8 to double
  %10 = fmul reassoc nsz arcp contract afn double 0x3EB0C6F7A0B5ED8D, %9
  %11 = fadd reassoc nsz arcp contract afn double %6, %10
  call void @llvm.lifetime.end.p0(i64 16, ptr %1) #14
  ret double %11
}

; Function Attrs: nounwind uwtable
define internal void @_update_progress(ptr noundef %0, double noundef %1, ptr noundef %2) #0 {
  %4 = alloca ptr, align 8
  %5 = alloca double, align 8
  %6 = alloca ptr, align 8
  %7 = alloca double, align 8
  store ptr %0, ptr %4, align 8, !tbaa !51
  store double %1, ptr %5, align 8, !tbaa !61
  store ptr %2, ptr %6, align 8, !tbaa !266
  call void @llvm.lifetime.start.p0(i64 8, ptr %7) #14
  %8 = call reassoc nsz arcp contract afn double @dt_get_wtime()
  store double %8, ptr %7, align 8, !tbaa !61
  %9 = load double, ptr %7, align 8, !tbaa !61
  %10 = load ptr, ptr %6, align 8, !tbaa !266
  %11 = load double, ptr %10, align 8, !tbaa !61
  %12 = fadd reassoc nsz arcp contract afn double %11, 5.000000e-01
  %13 = fcmp reassoc nsz arcp contract afn ogt double %9, %12
  br i1 %13, label %14, label %31

14:                                               ; preds = %3
  %15 = load ptr, ptr %4, align 8, !tbaa !51
  %16 = load double, ptr %5, align 8, !tbaa !61
  %17 = fcmp reassoc nsz arcp contract afn ogt double %16, 1.000000e+00
  br i1 %17, label %18, label %19

18:                                               ; preds = %14
  br label %27

19:                                               ; preds = %14
  %20 = load double, ptr %5, align 8, !tbaa !61
  %21 = fcmp reassoc nsz arcp contract afn olt double %20, 0.000000e+00
  br i1 %21, label %22, label %23

22:                                               ; preds = %19
  br label %25

23:                                               ; preds = %19
  %24 = load double, ptr %5, align 8, !tbaa !61
  br label %25

25:                                               ; preds = %23, %22
  %26 = phi reassoc nsz arcp contract afn double [ 0.000000e+00, %22 ], [ %24, %23 ]
  br label %27

27:                                               ; preds = %25, %18
  %28 = phi reassoc nsz arcp contract afn double [ 1.000000e+00, %18 ], [ %26, %25 ]
  call void @dt_control_job_set_progress(ptr noundef %15, double noundef %28)
  %29 = load double, ptr %7, align 8, !tbaa !61
  %30 = load ptr, ptr %6, align 8, !tbaa !266
  store double %29, ptr %30, align 8, !tbaa !61
  br label %31

31:                                               ; preds = %27, %3
  call void @llvm.lifetime.end.p0(i64 8, ptr %7) #14
  ret void
}

; Function Attrs: inlinehint nounwind uwtable
define internal i32 @_job_cancelled(ptr noundef %0) #5 {
  %2 = alloca ptr, align 8
  store ptr %0, ptr %2, align 8, !tbaa !51
  %3 = load ptr, ptr %2, align 8, !tbaa !51
  %4 = call i32 @dt_control_job_get_state(ptr noundef %3)
  %5 = icmp eq i32 %4, 4
  %6 = zext i1 %5 to i32
  ret i32 %6
}

; Function Attrs: nounwind uwtable
define internal i32 @_generic_dt_control_fileop_images_job_run(ptr noundef %0, ptr noundef %1, ptr noundef %2, ptr noundef %3) #0 {
  %5 = alloca i32, align 4
  %6 = alloca ptr, align 8
  %7 = alloca ptr, align 8
  %8 = alloca ptr, align 8
  %9 = alloca ptr, align 8
  %10 = alloca ptr, align 8
  %11 = alloca ptr, align 8
  %12 = alloca i32, align 4
  %13 = alloca [512 x i8], align 16
  %14 = alloca double, align 8
  %15 = alloca ptr, align 8
  %16 = alloca %struct.dt_film_t, align 8
  %17 = alloca i32, align 4
  %18 = alloca i32, align 4
  %19 = alloca i32, align 4
  %20 = alloca double, align 8
  %21 = alloca [1024 x i8], align 16
  store ptr %0, ptr %6, align 8, !tbaa !51
  store ptr %1, ptr %7, align 8, !tbaa !6
  store ptr %2, ptr %8, align 8, !tbaa !49
  store ptr %3, ptr %9, align 8, !tbaa !49
  call void @llvm.lifetime.start.p0(i64 8, ptr %10) #14
  %22 = load ptr, ptr %6, align 8, !tbaa !51
  %23 = call ptr @dt_control_job_get_params(ptr noundef %22)
  store ptr %23, ptr %10, align 8, !tbaa !53
  call void @llvm.lifetime.start.p0(i64 8, ptr %11) #14
  %24 = load ptr, ptr %10, align 8, !tbaa !53
  %25 = getelementptr inbounds nuw %struct.dt_control_image_enumerator_t, ptr %24, i32 0, i32 0
  %26 = load ptr, ptr %25, align 8, !tbaa !57
  store ptr %26, ptr %11, align 8, !tbaa !60
  call void @llvm.lifetime.start.p0(i64 4, ptr %12) #14
  %27 = load ptr, ptr %11, align 8, !tbaa !60
  %28 = call i32 @g_list_length(ptr noundef %27)
  store i32 %28, ptr %12, align 4, !tbaa !50
  call void @llvm.lifetime.start.p0(i64 512, ptr %13) #14
  call void @llvm.memset.p0.i64(ptr align 16 %13, i8 0, i64 512, i1 false)
  call void @llvm.lifetime.start.p0(i64 8, ptr %14) #14
  store double 0.000000e+00, ptr %14, align 8, !tbaa !61
  call void @llvm.lifetime.start.p0(i64 8, ptr %15) #14
  %29 = load ptr, ptr %10, align 8, !tbaa !53
  %30 = getelementptr inbounds nuw %struct.dt_control_image_enumerator_t, ptr %29, i32 0, i32 2
  %31 = load ptr, ptr %30, align 8, !tbaa !59
  store ptr %31, ptr %15, align 8, !tbaa !49
  %32 = getelementptr inbounds [512 x i8], ptr %13, i64 0, i64 0
  %33 = load ptr, ptr %8, align 8, !tbaa !49
  %34 = load ptr, ptr %9, align 8, !tbaa !49
  %35 = load i32, ptr %12, align 4, !tbaa !50
  %36 = zext i32 %35 to i64
  %37 = call ptr @dcngettext(ptr noundef null, ptr noundef %33, ptr noundef %34, i64 noundef %36, i32 noundef 5) #14
  %38 = load i32, ptr %12, align 4, !tbaa !50
  %39 = call i32 (ptr, i64, ptr, ...) @g_snprintf(ptr noundef %32, i64 noundef 512, ptr noundef %37, i32 noundef %38)
  %40 = load ptr, ptr %6, align 8, !tbaa !51
  %41 = getelementptr inbounds [512 x i8], ptr %13, i64 0, i64 0
  call void @dt_control_job_set_progress_message(ptr noundef %40, ptr noundef %41)
  call void @llvm.lifetime.start.p0(i64 584, ptr %16) #14
  call void @llvm.lifetime.start.p0(i64 4, ptr %17) #14
  %42 = load ptr, ptr %15, align 8, !tbaa !49
  %43 = call i32 @dt_film_new(ptr noundef %16, ptr noundef %42)
  store i32 %43, ptr %17, align 4, !tbaa !50
  %44 = load ptr, ptr %15, align 8, !tbaa !49
  call void @g_free(ptr noundef %44)
  %45 = load i32, ptr %17, align 4, !tbaa !50
  %46 = icmp sgt i32 %45, 0
  br i1 %46, label %49, label %47

47:                                               ; preds = %4
  %48 = call ptr @dcgettext(ptr noundef null, ptr noundef @.str.123, i32 noundef 5) #14
  call void (ptr, ...) @dt_control_log(ptr noundef %48)
  store i32 -1, ptr %5, align 4
  store i32 1, ptr %18, align 4
  br label %129

49:                                               ; preds = %4
  call void @llvm.lifetime.start.p0(i64 4, ptr %19) #14
  store i32 1, ptr %19, align 4, !tbaa !50
  call void @llvm.lifetime.start.p0(i64 8, ptr %20) #14
  store double 0.000000e+00, ptr %20, align 8, !tbaa !61
  br label %50

50:                                               ; preds = %80, %49
  %51 = load ptr, ptr %11, align 8, !tbaa !60
  %52 = icmp ne ptr %51, null
  br i1 %52, label %53, label %58

53:                                               ; preds = %50
  %54 = load ptr, ptr %6, align 8, !tbaa !51
  %55 = call i32 @_job_cancelled(ptr noundef %54)
  %56 = icmp ne i32 %55, 0
  %57 = xor i1 %56, true
  br label %58

58:                                               ; preds = %53, %50
  %59 = phi i1 [ false, %50 ], [ %57, %53 ]
  br i1 %59, label %60, label %89

60:                                               ; preds = %58
  %61 = load ptr, ptr %7, align 8, !tbaa !6
  %62 = load ptr, ptr %11, align 8, !tbaa !60
  %63 = getelementptr inbounds nuw %struct._GList, ptr %62, i32 0, i32 0
  %64 = load ptr, ptr %63, align 8, !tbaa !70
  %65 = ptrtoint ptr %64 to i64
  %66 = trunc i64 %65 to i32
  %67 = load i32, ptr %17, align 4, !tbaa !50
  %68 = call i32 %61(i32 noundef %66, i32 noundef %67)
  %69 = icmp ne i32 %68, -1
  %70 = zext i1 %69 to i32
  %71 = load i32, ptr %19, align 4, !tbaa !50
  %72 = and i32 %71, %70
  store i32 %72, ptr %19, align 4, !tbaa !50
  %73 = load ptr, ptr %11, align 8, !tbaa !60
  %74 = icmp ne ptr %73, null
  br i1 %74, label %75, label %79

75:                                               ; preds = %60
  %76 = load ptr, ptr %11, align 8, !tbaa !60
  %77 = getelementptr inbounds nuw %struct._GList, ptr %76, i32 0, i32 1
  %78 = load ptr, ptr %77, align 8, !tbaa !72
  br label %80

79:                                               ; preds = %60
  br label %80

80:                                               ; preds = %79, %75
  %81 = phi ptr [ %78, %75 ], [ null, %79 ]
  store ptr %81, ptr %11, align 8, !tbaa !60
  %82 = load i32, ptr %12, align 4, !tbaa !50
  %83 = uitofp i32 %82 to double
  %84 = fdiv reassoc nsz arcp contract afn double 1.000000e+00, %83
  %85 = load double, ptr %14, align 8, !tbaa !61
  %86 = fadd reassoc nsz arcp contract afn double %85, %84
  store double %86, ptr %14, align 8, !tbaa !61
  %87 = load ptr, ptr %6, align 8, !tbaa !51
  %88 = load double, ptr %14, align 8, !tbaa !61
  call void @_update_progress(ptr noundef %87, double noundef %88, ptr noundef %20)
  br label %50

89:                                               ; preds = %58
  %90 = load i32, ptr %19, align 4, !tbaa !50
  %91 = icmp ne i32 %90, 0
  br i1 %91, label %92, label %98

92:                                               ; preds = %89
  call void @llvm.lifetime.start.p0(i64 1024, ptr %21) #14
  %93 = getelementptr inbounds [1024 x i8], ptr %21, i64 0, i64 0
  %94 = getelementptr inbounds nuw %struct.dt_film_t, ptr %16, i32 0, i32 1
  %95 = getelementptr inbounds [512 x i8], ptr %94, i64 0, i64 0
  %96 = call i32 (ptr, i64, ptr, ...) @snprintf(ptr noundef %93, i64 noundef 1024, ptr noundef @.str.124, ptr noundef %95) #14
  %97 = getelementptr inbounds [1024 x i8], ptr %21, i64 0, i64 0
  call void @dt_collection_deserialize(ptr noundef %97, i32 noundef 0)
  call void @llvm.lifetime.end.p0(i64 1024, ptr %21) #14
  br label %98

98:                                               ; preds = %92, %89
  call void (...) @dt_film_remove_empty()
  br label %99

99:                                               ; preds = %98
  %100 = load i32, ptr getelementptr inbounds nuw (%struct.darktable_t, ptr @darktable, i32 0, i32 53), align 8, !tbaa !84
  %101 = and i32 %100, 1
  %102 = icmp ne i32 %101, 0
  br i1 %102, label %103, label %120

103:                                              ; preds = %99
  %104 = load i32, ptr getelementptr inbounds ([47 x i32], ptr getelementptr inbounds nuw (%struct.darktable_t, ptr @darktable, i32 0, i32 54), i64 0, i64 15), align 4, !tbaa !50
  %105 = icmp ne i32 %104, 0
  br i1 %105, label %106, label %120

106:                                              ; preds = %103
  br label %107

107:                                              ; preds = %106
  %108 = load i32, ptr getelementptr inbounds nuw (%struct.darktable_t, ptr @darktable, i32 0, i32 2), align 8, !tbaa !85
  %109 = and i32 1048576, %108
  %110 = icmp ne i32 %109, 0
  br i1 %110, label %111, label %117

111:                                              ; preds = %107
  %112 = load i32, ptr getelementptr inbounds nuw (%struct.darktable_t, ptr @darktable, i32 0, i32 2), align 8, !tbaa !85
  %113 = xor i32 %112, -1
  %114 = and i32 0, %113
  %115 = icmp ne i32 %114, 0
  br i1 %115, label %117, label %116

116:                                              ; preds = %111
  call void (ptr, ...) @dt_print_ext(ptr noundef @.str.60, ptr noundef @.str.61, ptr noundef @.str.48, i32 noundef 225, ptr noundef @__FUNCTION__._generic_dt_control_fileop_images_job_run)
  br label %117

117:                                              ; preds = %116, %111, %107
  br label %118

118:                                              ; preds = %117
  br label %119

119:                                              ; preds = %118
  br label %120

120:                                              ; preds = %119, %103, %99
  %121 = load ptr, ptr getelementptr inbounds nuw (%struct.darktable_t, ptr @darktable, i32 0, i32 13), align 8, !tbaa !86
  call void (ptr, i32, ...) @dt_control_signal_raise(ptr noundef %121, i32 noundef 15)
  br label %122

122:                                              ; preds = %120
  br label %123

123:                                              ; preds = %122
  %124 = load ptr, ptr getelementptr inbounds nuw (%struct.darktable_t, ptr @darktable, i32 0, i32 21), align 8, !tbaa !83
  %125 = load ptr, ptr %10, align 8, !tbaa !53
  %126 = getelementptr inbounds nuw %struct.dt_control_image_enumerator_t, ptr %125, i32 0, i32 0
  %127 = load ptr, ptr %126, align 8, !tbaa !57
  %128 = call ptr @g_list_copy(ptr noundef %127)
  call void @dt_collection_update_query(ptr noundef %124, i32 noundef 3, i32 noundef 43, ptr noundef %128)
  call void (...) @dt_control_queue_redraw_center()
  store i32 0, ptr %5, align 4
  store i32 1, ptr %18, align 4
  call void @llvm.lifetime.end.p0(i64 8, ptr %20) #14
  call void @llvm.lifetime.end.p0(i64 4, ptr %19) #14
  br label %129

129:                                              ; preds = %123, %47
  call void @llvm.lifetime.end.p0(i64 4, ptr %17) #14
  call void @llvm.lifetime.end.p0(i64 584, ptr %16) #14
  call void @llvm.lifetime.end.p0(i64 8, ptr %15) #14
  call void @llvm.lifetime.end.p0(i64 8, ptr %14) #14
  call void @llvm.lifetime.end.p0(i64 512, ptr %13) #14
  call void @llvm.lifetime.end.p0(i64 4, ptr %12) #14
  call void @llvm.lifetime.end.p0(i64 8, ptr %11) #14
  call void @llvm.lifetime.end.p0(i64 8, ptr %10) #14
  %130 = load i32, ptr %5, align 4
  ret i32 %130
}