; Function Attrs: nounwind uwtable
define internal fastcc range(i32 -1, 1) i32 @_generic_dt_control_fileop_images_job_run(ptr noundef %0, ptr noundef readonly captures(none) %1, ptr noundef %2, ptr noundef %3) unnamed_addr #0 {
  %5 = alloca %struct.timeval, align 8
  %6 = alloca [512 x i8], align 16
  %7 = alloca %struct.dt_film_t, align 8
  %8 = alloca [1024 x i8], align 16
  %9 = tail call ptr @dt_control_job_get_params(ptr noundef %0) #17
  %10 = load ptr, ptr %9, align 8, !tbaa !50
  %11 = tail call i32 @g_list_length(ptr noundef %10) #17
  call void @llvm.lifetime.start.p0(i64 512, ptr nonnull %6) #17
  call void @llvm.memset.p0.i64(ptr noundef nonnull align 16 dereferenceable(512) %6, i8 0, i64 512, i1 false)
  %12 = getelementptr inbounds nuw i8, ptr %9, i64 16
  %13 = load ptr, ptr %12, align 8, !tbaa !52
  %14 = zext i32 %11 to i64
  %15 = tail call ptr @dcngettext(ptr noundef null, ptr noundef %2, ptr noundef %3, i64 noundef %14, i32 noundef 5) #17
  %16 = call i32 (ptr, i64, ptr, ...) @g_snprintf(ptr noundef nonnull %6, i64 noundef 512, ptr noundef %15, i32 noundef %11) #17
  call void @dt_control_job_set_progress_message(ptr noundef %0, ptr noundef nonnull %6) #17
  call void @llvm.lifetime.start.p0(i64 584, ptr nonnull %7) #17
  %17 = call i32 @dt_film_new(ptr noundef nonnull %7, ptr noundef %13) #17
  call void @g_free(ptr noundef %13) #17
  %18 = icmp sgt i32 %17, 0
  br i1 %18, label %.preheader, label %22

.preheader:                                       ; preds = %4
  %.not37 = icmp eq ptr %10, null
  br i1 %.not37, label %.critedge.thread, label %.lr.ph

.lr.ph:                                           ; preds = %.preheader
  %19 = uitofp i32 %11 to double
  %20 = fdiv reassoc nsz arcp contract afn double 1.000000e+00, %19
  %21 = getelementptr inbounds nuw i8, ptr %5, i64 8
  br label %24

22:                                               ; preds = %4
  %23 = call ptr @dcgettext(ptr noundef null, ptr noundef nonnull @.str.123, i32 noundef 5) #17
  call void (ptr, ...) @dt_control_log(ptr noundef %23) #17
  br label %68

24:                                               ; preds = %.lr.ph, %_update_progress.exit
  %.041 = phi i32 [ 1, %.lr.ph ], [ %31, %_update_progress.exit ]
  %.02840 = phi ptr [ %10, %.lr.ph ], [ %33, %_update_progress.exit ]
  %.02939 = phi double [ 0.000000e+00, %.lr.ph ], [ %34, %_update_progress.exit ]
  %.03538 = phi double [ 0.000000e+00, %.lr.ph ], [ %.1, %_update_progress.exit ]
  %25 = call i32 @dt_control_job_get_state(ptr noundef %0) #17
  %.not36 = icmp eq i32 %25, 4
  br i1 %.not36, label %.critedge, label %26

26:                                               ; preds = %24
  %27 = load ptr, ptr %.02840, align 8, !tbaa !61
  %28 = ptrtoint ptr %27 to i64
  %29 = trunc i64 %28 to i32
  %30 = call i32 %1(i32 noundef %29, i32 noundef %17) #17, !callees !233
  %.not34 = icmp eq i32 %30, -1
  %31 = select i1 %.not34, i32 0, i32 %.041
  %32 = getelementptr inbounds nuw i8, ptr %.02840, i64 8
  %33 = load ptr, ptr %32, align 8, !tbaa !63
  %34 = fadd reassoc nsz arcp contract afn double %.02939, %20
  call void @llvm.lifetime.start.p0(i64 16, ptr nonnull %5) #17
  %35 = call i32 @gettimeofday(ptr noundef nonnull %5, ptr noundef null) #17
  %36 = load i64, ptr %5, align 8, !tbaa !88
  %37 = add nsw i64 %36, -1290608000
  %38 = sitofp i64 %37 to double
  %39 = load i64, ptr %21, align 8, !tbaa !90
  %40 = sitofp i64 %39 to double
  %41 = fmul reassoc nsz arcp contract afn double %40, 0x3EB0C6F7A0B5ED8D
  %42 = fadd reassoc nsz arcp contract afn double %41, %38
  call void @llvm.lifetime.end.p0(i64 16, ptr nonnull %5) #17
  %43 = fadd reassoc nsz arcp contract afn double %.03538, 5.000000e-01
  %44 = fcmp reassoc nsz arcp contract afn ogt double %42, %43
  br i1 %44, label %45, label %_update_progress.exit

45:                                               ; preds = %26
  %46 = fcmp reassoc nsz arcp contract afn ogt double %34, 1.000000e+00
  %47 = fcmp reassoc nsz arcp contract afn olt double %34, 0.000000e+00
  %48 = select reassoc nsz arcp contract afn i1 %47, double 0.000000e+00, double %34
  %49 = select reassoc nsz arcp contract afn i1 %46, double 1.000000e+00, double %48
  call void @dt_control_job_set_progress(ptr noundef %0, double noundef %49) #17
  br label %_update_progress.exit

_update_progress.exit:                            ; preds = %26, %45
  %.1 = phi nsz double [ %42, %45 ], [ %.03538, %26 ]
  %.not = icmp eq ptr %33, null
  br i1 %.not, label %.critedge, label %24

.critedge:                                        ; preds = %24, %_update_progress.exit
  %.0.lcssa.ph = phi i32 [ %.041, %24 ], [ %31, %_update_progress.exit ]
  %50 = icmp eq i32 %.0.lcssa.ph, 0
  br i1 %50, label %53, label %.critedge.thread

.critedge.thread:                                 ; preds = %.preheader, %.critedge
  call void @llvm.lifetime.start.p0(i64 1024, ptr nonnull %8) #17
  %51 = getelementptr inbounds nuw i8, ptr %7, i64 4
  %52 = call i32 (ptr, i64, ptr, ...) @snprintf(ptr noundef nonnull dereferenceable(1) %8, i64 noundef 1024, ptr noundef nonnull @.str.124, ptr noundef nonnull %51) #17
  call void @dt_collection_deserialize(ptr noundef nonnull %8, i32 noundef 0) #17
  call void @llvm.lifetime.end.p0(i64 1024, ptr nonnull %8) #17
  br label %53

53:                                               ; preds = %.critedge.thread, %.critedge
  call void (...) @dt_film_remove_empty() #17
  %54 = load i32, ptr getelementptr inbounds nuw (i8, ptr @darktable, i64 3128), align 8, !tbaa !76
  %55 = and i32 %54, 1
  %56 = icmp ne i32 %55, 0
  %57 = load i32, ptr getelementptr inbounds nuw (i8, ptr @darktable, i64 3192), align 8
  %58 = icmp ne i32 %57, 0
  %or.cond = select i1 %56, i1 %58, i1 false
  br i1 %or.cond, label %59, label %63

59:                                               ; preds = %53
  %60 = load i32, ptr getelementptr inbounds nuw (i8, ptr @darktable, i64 8), align 8, !tbaa !77
  %61 = and i32 %60, 1048576
  %.not33 = icmp eq i32 %61, 0
  br i1 %.not33, label %63, label %62

62:                                               ; preds = %59
  call void (ptr, ...) @dt_print_ext(ptr noundef nonnull @.str.60, ptr noundef nonnull @.str.61, ptr noundef nonnull @.str.48, i32 noundef 225, ptr noundef nonnull @__FUNCTION__._generic_dt_control_fileop_images_job_run) #17
  br label %63

63:                                               ; preds = %59, %62, %53
  %64 = load ptr, ptr getelementptr inbounds nuw (i8, ptr @darktable, i64 96), align 8, !tbaa !78
  call void (ptr, i32, ...) @dt_control_signal_raise(ptr noundef %64, i32 noundef 15) #17
  %65 = load ptr, ptr getelementptr inbounds nuw (i8, ptr @darktable, i64 160), align 8, !tbaa !75
  %66 = load ptr, ptr %9, align 8, !tbaa !50
  %67 = call ptr @g_list_copy(ptr noundef %66) #17
  call void @dt_collection_update_query(ptr noundef %65, i32 noundef 3, i32 noundef 43, ptr noundef %67) #17
  call void (...) @dt_control_queue_redraw_center() #17
  br label %68

68:                                               ; preds = %63, %22
  %.027 = phi i32 [ 0, %63 ], [ -1, %22 ]
  call void @llvm.lifetime.end.p0(i64 584, ptr nonnull %7) #17
  call void @llvm.lifetime.end.p0(i64 512, ptr nonnull %6) #17
  ret i32 %.027
}